target datalayout = "e-m:e-p270:32:32-p271:32:32-p272:64:64-i64:64-i128:128-f80:128-n8:16:32:64-S128"
target triple = "x86_64-pc-linux-gnu"

%struct.ssl_st = type { i32, i16, i16, ptr, ptr, ptr, ptr, ptr, i32, i32, ptr, ptr, i32, i32, ptr, ptr, ptr, ptr, ptr, ptr, ptr, ptr, i32, i32, [32 x i8], ptr, ptr, ptr, ptr, ptr, ptr, ptr, i64, %struct.crypto_ex_data_st, ptr, i32, i32, i32, i32, i16, ptr, i32, i64, ptr, ptr, ptr, ptr, ptr, ptr, i32, i32, ptr, ptr, i8, i8, i32 }
%struct.crypto_ex_data_st = type { ptr }
%struct.ssl3_state_st = type { [8 x i8], [8 x i8], [32 x i8], [32 x i8], i8, i8, %struct.ssl3_buffer_st, %struct.ssl3_buffer_st, %struct.ssl3_record_st, i8, i32, i32, i32, i32, ptr, ptr, %struct.env_md_ctx_st, %struct.env_md_ctx_st, i8, i32, [2 x i8], i32, i8, i8, ptr, ptr, ptr, %struct.anon, [64 x i8], i8, [64 x i8], i8, i32, i32, ptr, i64, ptr, i64, i8, [64 x i8] }
%struct.ssl3_buffer_st = type { ptr, i16, i16, i16 }
%struct.ssl3_record_st = type { i8, i16, ptr }
%struct.env_md_ctx_st = type { ptr, ptr, ptr, ptr }
%struct.anon = type { [64 x i8], i32, [64 x i8], i32, i64, i32, ptr, i32, i32, %union.anon, %union.anon.0, i8, i32, ptr, ptr, i64, ptr, i8, i8, i8, i8, i32, i8, ptr, i64, i8, ptr, i8, i8, i8, %struct.ssl_ecdh_ctx_st, ptr, i16 }
%union.anon = type { i32 }
%union.anon.0 = type { i16 }
%struct.ssl_ecdh_ctx_st = type { ptr, ptr }
%struct.ssl_protocol_method_st = type { i8, ptr, ptr, ptr, ptr, ptr, ptr, ptr, ptr, ptr, ptr, ptr, i32, ptr, ptr }

; Function Attrs: nounwind uwtable
define internal void @consume_buffer(ptr noundef %0, i64 noundef %1) #0 {
  %3 = alloca ptr, align 8
  %4 = alloca i64, align 8
  store ptr %0, ptr %3, align 8, !tbaa !59
  store i64 %1, ptr %4, align 8, !tbaa !53
  %5 = load i64, ptr %4, align 8, !tbaa !53
  %6 = load ptr, ptr %3, align 8, !tbaa !59
  %7 = getelementptr inbounds nuw %struct.ssl3_buffer_st, ptr %6, i32 0, i32 2
  %8 = load i16, ptr %7, align 2, !tbaa !62
  %9 = zext i16 %8 to i64
  %10 = icmp ugt i64 %5, %9
  br i1 %10, label %11, label %12

11:                                               ; preds = %2
  call void @abort() #8
  unreachable

12:                                               ; preds = %2
  %13 = load i64, ptr %4, align 8, !tbaa !53
  %14 = trunc i64 %13 to i16
  %15 = zext i16 %14 to i32
  %16 = load ptr, ptr %3, align 8, !tbaa !59
  %17 = getelementptr inbounds nuw %struct.ssl3_buffer_st, ptr %16, i32 0, i32 1
  %18 = load i16, ptr %17, align 8, !tbaa !63
  %19 = zext i16 %18 to i32
  %20 = add nsw i32 %19, %15
  %21 = trunc i32 %20 to i16
  store i16 %21, ptr %17, align 8, !tbaa !63
  %22 = load i64, ptr %4, align 8, !tbaa !53
  %23 = trunc i64 %22 to i16
  %24 = zext i16 %23 to i32
  %25 = load ptr, ptr %3, align 8, !tbaa !59
  %26 = getelementptr inbounds nuw %struct.ssl3_buffer_st, ptr %25, i32 0, i32 2
  %27 = load i16, ptr %26, align 2, !tbaa !62
  %28 = zext i16 %27 to i32
  %29 = sub nsw i32 %28, %24
  %30 = trunc i32 %29 to i16
  store i16 %30, ptr %26, align 2, !tbaa !62
  %31 = load i64, ptr %4, align 8, !tbaa !53
  %32 = trunc i64 %31 to i16
  %33 = zext i16 %32 to i32
  %34 = load ptr, ptr %3, align 8, !tbaa !59
  %35 = getelementptr inbounds nuw %struct.ssl3_buffer_st, ptr %34, i32 0, i32 3
  %36 = load i16, ptr %35, align 4, !tbaa !64
  %37 = zext i16 %36 to i32
  %38 = sub nsw i32 %37, %33
  %39 = trunc i32 %38 to i16
  store i16 %39, ptr %35, align 4, !tbaa !64
  ret void
}

; Function Attrs: nounwind uwtable
define hidden void @ssl_read_buffer_consume(ptr noundef %0, i64 noundef %1) #0 {
  %3 = alloca ptr, align 8
  %4 = alloca i64, align 8
  %5 = alloca ptr, align 8
  store ptr %0, ptr %3, align 8, !tbaa !6
  store i64 %1, ptr %4, align 8, !tbaa !53
  call void @llvm.lifetime.start.p0(i64 8, ptr %5) #7
  %6 = load ptr, ptr %3, align 8, !tbaa !6
  %7 = getelementptr inbounds nuw %struct.ssl_st, ptr %6, i32 0, i32 14
  %8 = load ptr, ptr %7, align 8, !tbaa !11
  %9 = getelementptr inbounds nuw %struct.ssl3_state_st, ptr %8, i32 0, i32 6
  store ptr %9, ptr %5, align 8, !tbaa !59
  %10 = load ptr, ptr %5, align 8, !tbaa !59
  %11 = load i64, ptr %4, align 8, !tbaa !53
  call void @consume_buffer(ptr noundef %10, i64 noundef %11)
  %12 = load ptr, ptr %3, align 8, !tbaa !6
  %13 = getelementptr inbounds nuw %struct.ssl_st, ptr %12, i32 0, i32 3
  %14 = load ptr, ptr %13, align 8, !tbaa !55
  %15 = getelementptr inbounds nuw %struct.ssl_protocol_method_st, ptr %14, i32 0, i32 0
  %16 = load i8, ptr %15, align 8, !tbaa !56
  %17 = icmp ne i8 %16, 0
  br i1 %17, label %19, label %18

18:                                               ; preds = %2
  br label %19

19:                                               ; preds = %18, %2
  call void @llvm.lifetime.end.p0(i64 8, ptr %5) #7
  ret void
}