; Function Attrs: nofree nounwind uwtable
define hidden void @ssl_read_buffer_consume(ptr noundef readonly captures(none) %0, i64 noundef %1) local_unnamed_addr #4 {
  %3 = getelementptr inbounds nuw i8, ptr %0, i64 80
  %4 = load ptr, ptr %3, align 8, !tbaa !6
  %5 = getelementptr inbounds nuw i8, ptr %4, i64 98
  %6 = load i16, ptr %5, align 2, !tbaa !56
  %7 = zext i16 %6 to i64
  %8 = icmp ugt i64 %1, %7
  br i1 %8, label %9, label %consume_buffer.exit

9:                                                ; preds = %2
  tail call void @abort() #11
  unreachable

consume_buffer.exit:                              ; preds = %2
  %10 = trunc i64 %1 to i16
  %11 = getelementptr inbounds nuw i8, ptr %4, i64 96
  %12 = load i16, ptr %11, align 8, !tbaa !55
  %13 = add i16 %12, %10
  store i16 %13, ptr %11, align 8, !tbaa !55
  %14 = sub i16 %6, %10
  store i16 %14, ptr %5, align 2, !tbaa !56
  %15 = getelementptr inbounds nuw i8, ptr %4, i64 100
  %16 = load i16, ptr %15, align 4, !tbaa !57
  %17 = sub i16 %16, %10
  store i16 %17, ptr %15, align 4, !tbaa !57
  ret void
}